target datalayout = "e-m:e-p270:32:32-p271:32:32-p272:64:64-i64:64-i128:128-f80:128-n8:16:32:64-S128"
target triple = "x86_64-pc-linux-gnu"

%class.svector = type { %class.vector }
%class.vector = type { ptr }
%class.prime_generator = type { %class.svector }

@.str = private unnamed_addr constant [34 x i8] c"prime generator capacity exceeded\00", align 1
@_ZTI25prime_generator_exception = linkonce_odr hidden constant { ptr, ptr, ptr } { ptr getelementptr inbounds (ptr, ptr @_ZTVN10__cxxabiv120__si_class_type_infoE, i64 2), ptr @_ZTS25prime_generator_exception, ptr @_ZTI17default_exception }, comdat, align 8

; Function Attrs: mustprogress nounwind uwtable
define linkonce_odr hidden noundef nonnull align 8 dereferenceable(8) ptr @_ZN6vectorImLb0EjEixEj(ptr noundef nonnull align 8 dereferenceable(8) %0, i32 noundef %1) #6 comdat align 2 {
  %3 = alloca ptr, align 8
  %4 = alloca i32, align 4
  store ptr %0, ptr %3, align 8, !tbaa !22
  store i32 %1, ptr %4, align 4, !tbaa !12
  %5 = load ptr, ptr %3, align 8
  %6 = getelementptr inbounds nuw %class.vector, ptr %5, i32 0, i32 0
  %7 = load ptr, ptr %6, align 8, !tbaa !26
  %8 = load i32, ptr %4, align 4, !tbaa !12
  %9 = zext i32 %8 to i64
  %10 = getelementptr inbounds nuw i64, ptr %7, i64 %9
  ret ptr %10
}

; Function Attrs: mustprogress nounwind uwtable
define linkonce_odr hidden noundef i32 @_ZNK6vectorImLb0EjE4sizeEv(ptr noundef nonnull align 8 dereferenceable(8) %0) #6 comdat align 2 {
  %2 = alloca i32, align 4
  %3 = alloca ptr, align 8
  store ptr %0, ptr %3, align 8, !tbaa !22
  %4 = load ptr, ptr %3, align 8
  %5 = getelementptr inbounds nuw %class.vector, ptr %4, i32 0, i32 0
  %6 = load ptr, ptr %5, align 8, !tbaa !26
  %7 = icmp eq ptr %6, null
  br i1 %7, label %8, label %9

8:                                                ; preds = %1
  store i32 0, ptr %2, align 4
  br label %14

9:                                                ; preds = %1
  %10 = getelementptr inbounds nuw %class.vector, ptr %4, i32 0, i32 0
  %11 = load ptr, ptr %10, align 8, !tbaa !26
  %12 = getelementptr inbounds i32, ptr %11, i64 -1
  %13 = load i32, ptr %12, align 4, !tbaa !12
  store i32 %13, ptr %2, align 4
  br label %14

14:                                               ; preds = %9, %8
  %15 = load i32, ptr %2, align 4
  ret i32 %15
}

; Function Attrs: mustprogress uwtable
define hidden noundef i64 @_ZN15prime_generatorclEj(ptr noundef nonnull align 8 dereferenceable(8) %0, i32 noundef %1) #4 align 2 personality ptr @__gxx_personality_v0 {
  %3 = alloca i64, align 8
  %4 = alloca ptr, align 8
  %5 = alloca i32, align 4
  %6 = alloca ptr, align 8
  %7 = alloca i32, align 4
  store ptr %0, ptr %4, align 8, !tbaa !3
  store i32 %1, ptr %5, align 4, !tbaa !12
  %8 = load ptr, ptr %4, align 8
  %9 = load i32, ptr %5, align 4, !tbaa !12
  %10 = getelementptr inbounds nuw %class.prime_generator, ptr %8, i32 0, i32 0
  %11 = call noundef i32 @_ZNK6vectorImLb0EjE4sizeEv(ptr noundef nonnull align 8 dereferenceable(8) %10)
  %12 = icmp ult i32 %9, %11
  br i1 %12, label %13, label %18

13:                                               ; preds = %2
  %14 = getelementptr inbounds nuw %class.prime_generator, ptr %8, i32 0, i32 0
  %15 = load i32, ptr %5, align 4, !tbaa !12
  %16 = call noundef nonnull align 8 dereferenceable(8) ptr @_ZN6vectorImLb0EjEixEj(ptr noundef nonnull align 8 dereferenceable(8) %14, i32 noundef %15)
  %17 = load i64, ptr %16, align 8, !tbaa !8
  store i64 %17, ptr %3, align 8
  br label %50

18:                                               ; preds = %2
  %19 = load i32, ptr %5, align 4, !tbaa !12
  %20 = icmp ugt i32 %19, 1048576
  br i1 %20, label %21, label %28

21:                                               ; preds = %18
  %22 = call ptr @__cxa_allocate_exception(i64 40) #3
  invoke void @_ZN25prime_generator_exceptionC2EPKc(ptr noundef nonnull align 8 dereferenceable(40) %22, ptr noundef @.str)
          to label %23 unwind label %24

23:                                               ; preds = %21
  call void @__cxa_throw(ptr %22, ptr @_ZTI25prime_generator_exception, ptr @_ZN17default_exceptionD2Ev) #19
  unreachable

24:                                               ; preds = %21
  %25 = landingpad { ptr, i32 }
          cleanup
  %26 = extractvalue { ptr, i32 } %25, 0
  store ptr %26, ptr %6, align 8
  %27 = extractvalue { ptr, i32 } %25, 1
  store i32 %27, ptr %7, align 4
  call void @__cxa_free_exception(ptr %22) #3
  br label %52

28:                                               ; preds = %18
  call void @_ZN15prime_generator22process_next_k_numbersEm(ptr noundef nonnull align 8 dereferenceable(8) %8, i64 noundef 1024)
  %29 = load i32, ptr %5, align 4, !tbaa !12
  %30 = getelementptr inbounds nuw %class.prime_generator, ptr %8, i32 0, i32 0
  %31 = call noundef i32 @_ZNK6vectorImLb0EjE4sizeEv(ptr noundef nonnull align 8 dereferenceable(8) %30)
  %32 = icmp ult i32 %29, %31
  br i1 %32, label %33, label %38

33:                                               ; preds = %28
  %34 = getelementptr inbounds nuw %class.prime_generator, ptr %8, i32 0, i32 0
  %35 = load i32, ptr %5, align 4, !tbaa !12
  %36 = call noundef nonnull align 8 dereferenceable(8) ptr @_ZN6vectorImLb0EjEixEj(ptr noundef nonnull align 8 dereferenceable(8) %34, i32 noundef %35)
  %37 = load i64, ptr %36, align 8, !tbaa !8
  store i64 %37, ptr %3, align 8
  br label %50

38:                                               ; preds = %28
  br label %39

39:                                               ; preds = %44, %38
  %40 = load i32, ptr %5, align 4, !tbaa !12
  %41 = getelementptr inbounds nuw %class.prime_generator, ptr %8, i32 0, i32 0
  %42 = call noundef i32 @_ZNK6vectorImLb0EjE4sizeEv(ptr noundef nonnull align 8 dereferenceable(8) %41)
  %43 = icmp ule i32 %40, %42
  br i1 %43, label %44, label %45

44:                                               ; preds = %39
  call void @_ZN15prime_generator22process_next_k_numbersEm(ptr noundef nonnull align 8 dereferenceable(8) %8, i64 noundef 16384)
  br label %39, !llvm.loop !28

45:                                               ; preds = %39
  %46 = getelementptr inbounds nuw %class.prime_generator, ptr %8, i32 0, i32 0
  %47 = load i32, ptr %5, align 4, !tbaa !12
  %48 = call noundef nonnull align 8 dereferenceable(8) ptr @_ZN6vectorImLb0EjEixEj(ptr noundef nonnull align 8 dereferenceable(8) %46, i32 noundef %47)
  %49 = load i64, ptr %48, align 8, !tbaa !8
  store i64 %49, ptr %3, align 8
  br label %50

50:                                               ; preds = %45, %33, %13
  %51 = load i64, ptr %3, align 8
  ret i64 %51

52:                                               ; preds = %24
  %53 = load ptr, ptr %6, align 8
  %54 = load i32, ptr %7, align 4
  %55 = insertvalue { ptr, i32 } poison, ptr %53, 0
  %56 = insertvalue { ptr, i32 } %55, i32 %54, 1
  resume { ptr, i32 } %56
}