; Function Attrs: mustprogress uwtable
define hidden noundef i64 @_ZN15prime_generatorclEj(ptr noundef nonnull align 8 dereferenceable(8) %0, i32 noundef %1) local_unnamed_addr #3 align 2 personality ptr @__gxx_personality_v0 {
  %3 = load ptr, ptr %0, align 8, !tbaa !3
  %4 = icmp eq ptr %3, null
  br i1 %4, label %_ZNK6vectorImLb0EjE4sizeEv.exit.thread, label %_ZNK6vectorImLb0EjE4sizeEv.exit

_ZNK6vectorImLb0EjE4sizeEv.exit:                  ; preds = %2
  %5 = getelementptr inbounds i8, ptr %3, i64 -4
  %6 = load i32, ptr %5, align 4, !tbaa !9
  %7 = icmp ult i32 %1, %6
  br i1 %7, label %.loopexit, label %_ZNK6vectorImLb0EjE4sizeEv.exit.thread

_ZNK6vectorImLb0EjE4sizeEv.exit.thread:           ; preds = %2, %_ZNK6vectorImLb0EjE4sizeEv.exit
  %8 = icmp ugt i32 %1, 1048576
  br i1 %8, label %9, label %14

9:                                                ; preds = %_ZNK6vectorImLb0EjE4sizeEv.exit.thread
  %10 = tail call ptr @__cxa_allocate_exception(i64 40) #20
  invoke void @_ZN25prime_generator_exceptionC2EPKc(ptr noundef nonnull align 8 dereferenceable(40) %10, ptr noundef nonnull @.str)
          to label %11 unwind label %12

11:                                               ; preds = %9
  tail call void @__cxa_throw(ptr nonnull %10, ptr nonnull @_ZTI25prime_generator_exception, ptr nonnull @_ZN17default_exceptionD2Ev) #21
  unreachable

12:                                               ; preds = %9
  %13 = landingpad { ptr, i32 }
          cleanup
  tail call void @__cxa_free_exception(ptr nonnull %10) #20
  resume { ptr, i32 } %13

14:                                               ; preds = %_ZNK6vectorImLb0EjE4sizeEv.exit.thread
  tail call void @_ZN15prime_generator22process_next_k_numbersEm(ptr noundef nonnull align 8 dereferenceable(8) %0, i64 noundef 1024)
  %15 = load ptr, ptr %0, align 8, !tbaa !3
  %16 = icmp eq ptr %15, null
  br i1 %16, label %.preheader.preheader, label %_ZNK6vectorImLb0EjE4sizeEv.exit12

_ZNK6vectorImLb0EjE4sizeEv.exit12:                ; preds = %14
  %17 = getelementptr inbounds i8, ptr %15, i64 -4
  %18 = load i32, ptr %17, align 4, !tbaa !9
  %19 = icmp ult i32 %1, %18
  br i1 %19, label %.loopexit, label %.preheader.preheader

.preheader.preheader:                             ; preds = %14, %_ZNK6vectorImLb0EjE4sizeEv.exit12
  br label %.preheader

.preheader:                                       ; preds = %.preheader.preheader, %25
  %20 = phi ptr [ %.pre, %25 ], [ %15, %.preheader.preheader ]
  %21 = icmp eq ptr %20, null
  br i1 %21, label %_ZNK6vectorImLb0EjE4sizeEv.exit14, label %22

22:                                               ; preds = %.preheader
  %23 = getelementptr inbounds i8, ptr %20, i64 -4
  %24 = load i32, ptr %23, align 4, !tbaa !9
  br label %_ZNK6vectorImLb0EjE4sizeEv.exit14

_ZNK6vectorImLb0EjE4sizeEv.exit14:                ; preds = %.preheader, %22
  %.0.i13 = phi i32 [ %24, %22 ], [ 0, %.preheader ]
  %.not = icmp ugt i32 %1, %.0.i13
  br i1 %.not, label %.loopexit, label %25

25:                                               ; preds = %_ZNK6vectorImLb0EjE4sizeEv.exit14
  tail call void @_ZN15prime_generator22process_next_k_numbersEm(ptr noundef nonnull align 8 dereferenceable(8) %0, i64 noundef 16384)
  %.pre = load ptr, ptr %0, align 8, !tbaa !3
  br label %.preheader, !llvm.loop !30

.loopexit:                                        ; preds = %_ZNK6vectorImLb0EjE4sizeEv.exit14, %_ZNK6vectorImLb0EjE4sizeEv.exit12, %_ZNK6vectorImLb0EjE4sizeEv.exit
  %.lcssa.sink = phi ptr [ %3, %_ZNK6vectorImLb0EjE4sizeEv.exit ], [ %15, %_ZNK6vectorImLb0EjE4sizeEv.exit12 ], [ %20, %_ZNK6vectorImLb0EjE4sizeEv.exit14 ]
  %26 = zext i32 %1 to i64
  %27 = getelementptr inbounds nuw i64, ptr %.lcssa.sink, i64 %26
  %.0 = load i64, ptr %27, align 8, !tbaa !11
  ret i64 %.0
}